target datalayout = "e-m:e-p270:32:32-p271:32:32-p272:64:64-i64:64-i128:128-f80:128-n8:16:32:64-S128"
target triple = "x86_64-unknown-linux-gnu"

@.str.1 = private unnamed_addr constant [25 x i8] c"../qemu/system/physmem.c\00", align 1
@__func__.qemu_ram_alloc_from_file = private unnamed_addr constant [25 x i8] c"qemu_ram_alloc_from_file\00", align 1
@.str.38 = private unnamed_addr constant [42 x i8] c"can't open backing store %s for guest RAM\00", align 1
@.str.39 = private unnamed_addr constant [9 x i8] c"!created\00", align 1
@__PRETTY_FUNCTION__.qemu_ram_alloc_from_file = private unnamed_addr constant [104 x i8] c"RAMBlock *qemu_ram_alloc_from_file(ram_addr_t, MemoryRegion *, uint32_t, const char *, off_t, Error **)\00", align 1
@.str.40 = private unnamed_addr constant [173 x i8] c"Consider opening the backing store read-only but still creating writable RAM using '-object memory-backend-file,readonly=on,rom=off...' (see \22VM templating\22 documentation)\0A\00", align 1

; Function Attrs: nounwind sspstrong uwtable
define dso_local ptr @qemu_ram_alloc_from_file(i64 noundef %size, ptr noundef %mr, i32 noundef %ram_flags, ptr noundef %mem_path, i64 noundef %offset, ptr noundef %errp) #0 {
entry:
  %retval = alloca ptr, align 8
  %size.addr = alloca i64, align 8
  %mr.addr = alloca ptr, align 8
  %ram_flags.addr = alloca i32, align 4
  %mem_path.addr = alloca ptr, align 8
  %offset.addr = alloca i64, align 8
  %errp.addr = alloca ptr, align 8
  %fd = alloca i32, align 4
  %created = alloca i8, align 1
  %block = alloca ptr, align 8
  store i64 %size, ptr %size.addr, align 8
  store ptr %mr, ptr %mr.addr, align 8
  store i32 %ram_flags, ptr %ram_flags.addr, align 4
  store ptr %mem_path, ptr %mem_path.addr, align 8
  store i64 %offset, ptr %offset.addr, align 8
  store ptr %errp, ptr %errp.addr, align 8
  %0 = load ptr, ptr %mem_path.addr, align 8
  %1 = load ptr, ptr %mr.addr, align 8
  %call = call ptr @memory_region_name(ptr noundef %1)
  %2 = load i32, ptr %ram_flags.addr, align 4
  %and = and i32 %2, 2048
  %tobool = icmp ne i32 %and, 0
  %lnot = xor i1 %tobool, true
  %lnot1 = xor i1 %lnot, true
  %call2 = call i32 @file_ram_open(ptr noundef %0, ptr noundef %call, i1 noundef zeroext %lnot1, ptr noundef %created)
  store i32 %call2, ptr %fd, align 4
  %3 = load i32, ptr %fd, align 4
  %cmp = icmp slt i32 %3, 0
  br i1 %cmp, label %if.then, label %if.end19

if.then:                                          ; preds = %entry
  %4 = load ptr, ptr %errp.addr, align 8
  %5 = load i32, ptr %fd, align 4
  %sub = sub i32 0, %5
  %6 = load ptr, ptr %mem_path.addr, align 8
  call void (ptr, ptr, i32, ptr, i32, ptr, ...) @error_setg_errno_internal(ptr noundef %4, ptr noundef @.str.1, i32 noundef 1971, ptr noundef @__func__.qemu_ram_alloc_from_file, i32 noundef %sub, ptr noundef @.str.38, ptr noundef %6)
  %7 = load i32, ptr %ram_flags.addr, align 4
  %and3 = and i32 %7, 2048
  %tobool4 = icmp ne i32 %and3, 0
  br i1 %tobool4, label %if.end18, label %land.lhs.true

land.lhs.true:                                    ; preds = %if.then
  %8 = load i32, ptr %ram_flags.addr, align 4
  %and5 = and i32 %8, 2
  %tobool6 = icmp ne i32 %and5, 0
  br i1 %tobool6, label %if.end18, label %land.lhs.true7

land.lhs.true7:                                   ; preds = %land.lhs.true
  %9 = load i32, ptr %fd, align 4
  %cmp8 = icmp eq i32 %9, -13
  br i1 %cmp8, label %if.then9, label %if.end18

if.then9:                                         ; preds = %land.lhs.true7
  %10 = load ptr, ptr %mem_path.addr, align 8
  %11 = load ptr, ptr %mr.addr, align 8
  %call10 = call ptr @memory_region_name(ptr noundef %11)
  %call11 = call i32 @file_ram_open(ptr noundef %10, ptr noundef %call10, i1 noundef zeroext true, ptr noundef %created)
  store i32 %call11, ptr %fd, align 4
  %12 = load i32, ptr %fd, align 4
  %cmp12 = icmp slt i32 %12, 0
  br i1 %cmp12, label %if.then13, label %if.end

if.then13:                                        ; preds = %if.then9
  store ptr null, ptr %retval, align 8
  br label %return

if.end:                                           ; preds = %if.then9
  %13 = load i8, ptr %created, align 1
  %tobool14 = trunc i8 %13 to i1
  br i1 %tobool14, label %if.else, label %if.then15

if.then15:                                        ; preds = %if.end
  br label %if.end16

if.else:                                          ; preds = %if.end
  call void @__assert_fail(ptr noundef @.str.39, ptr noundef @.str.1, i32 noundef 1984, ptr noundef @__PRETTY_FUNCTION__.qemu_ram_alloc_from_file) #13
  unreachable

if.end16:                                         ; preds = %if.then15
  %14 = load i32, ptr %fd, align 4
  %call17 = call i32 @close(i32 noundef %14)
  %15 = load ptr, ptr %errp.addr, align 8
  call void (ptr, ptr, ...) @error_append_hint(ptr noundef %15, ptr noundef @.str.40)
  br label %if.end18

if.end18:                                         ; preds = %if.end16, %land.lhs.true7, %land.lhs.true, %if.then
  store ptr null, ptr %retval, align 8
  br label %return

if.end19:                                         ; preds = %entry
  %16 = load i64, ptr %size.addr, align 8
  %17 = load ptr, ptr %mr.addr, align 8
  %18 = load i32, ptr %ram_flags.addr, align 4
  %19 = load i32, ptr %fd, align 4
  %20 = load i64, ptr %offset.addr, align 8
  %21 = load ptr, ptr %errp.addr, align 8
  %call20 = call ptr @qemu_ram_alloc_from_fd(i64 noundef %16, ptr noundef %17, i32 noundef %18, i32 noundef %19, i64 noundef %20, ptr noundef %21)
  store ptr %call20, ptr %block, align 8
  %22 = load ptr, ptr %block, align 8
  %tobool21 = icmp ne ptr %22, null
  br i1 %tobool21, label %if.end28, label %if.then22

if.then22:                                        ; preds = %if.end19
  %23 = load i8, ptr %created, align 1
  %tobool23 = trunc i8 %23 to i1
  br i1 %tobool23, label %if.then24, label %if.end26

if.then24:                                        ; preds = %if.then22
  %24 = load ptr, ptr %mem_path.addr, align 8
  %call25 = call i32 @unlink(ptr noundef %24) #15
  br label %if.end26

if.end26:                                         ; preds = %if.then24, %if.then22
  %25 = load i32, ptr %fd, align 4
  %call27 = call i32 @close(i32 noundef %25)
  store ptr null, ptr %retval, align 8
  br label %return

if.end28:                                         ; preds = %if.end19
  %26 = load ptr, ptr %block, align 8
  store ptr %26, ptr %retval, align 8
  br label %return

return:                                           ; preds = %if.end28, %if.end26, %if.end18, %if.then13
  %27 = load ptr, ptr %retval, align 8
  ret ptr %27
}