; Function Attrs: nounwind sspstrong uwtable
define dso_local noundef ptr @qemu_ram_alloc_from_file(i64 noundef %size, ptr noundef %mr, i32 noundef %ram_flags, ptr noundef %mem_path, i64 noundef %offset, ptr noundef %errp) local_unnamed_addr #0 {
entry:
  %created = alloca i8, align 1
  %call = tail call ptr @memory_region_name(ptr noundef %mr) #28
  %and = and i32 %ram_flags, 2048
  %tobool = icmp ne i32 %and, 0
  %call2 = call fastcc i32 @file_ram_open(ptr noundef %mem_path, ptr noundef %call, i1 noundef zeroext %tobool, ptr noundef %created)
  %cmp = icmp slt i32 %call2, 0
  br i1 %cmp, label %if.then, label %if.end19

if.then:                                          ; preds = %entry
  %sub = sub i32 0, %call2
  tail call void (ptr, ptr, i32, ptr, i32, ptr, ...) @error_setg_errno_internal(ptr noundef %errp, ptr noundef nonnull @.str.1, i32 noundef 1971, ptr noundef nonnull @__func__.qemu_ram_alloc_from_file, i32 noundef %sub, ptr noundef nonnull @.str.38, ptr noundef %mem_path) #28
  br i1 %tobool, label %return, label %land.lhs.true

land.lhs.true:                                    ; preds = %if.then
  %and5 = and i32 %ram_flags, 2
  %tobool6 = icmp eq i32 %and5, 0
  %cmp8 = icmp eq i32 %call2, -13
  %or.cond = and i1 %tobool6, %cmp8
  br i1 %or.cond, label %if.then9, label %return

if.then9:                                         ; preds = %land.lhs.true
  %call10 = tail call ptr @memory_region_name(ptr noundef %mr) #28
  %call11 = call fastcc i32 @file_ram_open(ptr noundef %mem_path, ptr noundef %call10, i1 noundef zeroext true, ptr noundef %created)
  %cmp12 = icmp slt i32 %call11, 0
  br i1 %cmp12, label %return, label %if.end

if.end:                                           ; preds = %if.then9
  %0 = load i8, ptr %created, align 1
  %tobool14 = trunc i8 %0 to i1
  br i1 %tobool14, label %if.else, label %if.end16

if.else:                                          ; preds = %if.end
  tail call void @__assert_fail(ptr noundef nonnull @.str.39, ptr noundef nonnull @.str.1, i32 noundef 1984, ptr noundef nonnull @__PRETTY_FUNCTION__.qemu_ram_alloc_from_file) #27
  unreachable

if.end16:                                         ; preds = %if.end
  %call17 = tail call i32 @close(i32 noundef %call11) #28
  tail call void (ptr, ptr, ...) @error_append_hint(ptr noundef %errp, ptr noundef nonnull @.str.40) #28
  br label %return

if.end19:                                         ; preds = %entry
  %call20 = tail call ptr @qemu_ram_alloc_from_fd(i64 noundef %size, ptr noundef %mr, i32 noundef %ram_flags, i32 noundef %call2, i64 noundef %offset, ptr noundef %errp)
  %tobool21.not = icmp eq ptr %call20, null
  br i1 %tobool21.not, label %if.then22, label %return

if.then22:                                        ; preds = %if.end19
  %1 = load i8, ptr %created, align 1
  %tobool23 = trunc i8 %1 to i1
  br i1 %tobool23, label %if.then24, label %if.end26

if.then24:                                        ; preds = %if.then22
  %call25 = tail call i32 @unlink(ptr noundef %mem_path) #28
  br label %if.end26

if.end26:                                         ; preds = %if.then24, %if.then22
  %call27 = tail call i32 @close(i32 noundef %call2) #28
  br label %return

return:                                           ; preds = %if.end19, %if.then, %land.lhs.true, %if.end16, %if.then9, %if.end26
  %retval.0 = phi ptr [ null, %if.end26 ], [ null, %if.then9 ], [ null, %if.end16 ], [ null, %land.lhs.true ], [ null, %if.then ], [ %call20, %if.end19 ]
  ret ptr %retval.0
}